(lp0
(dp1
S'setup_time_limit'
p2
F10.0
sS'turn_time_limit'
p3
F12.74534523913621
sS'turns_left'
p4
I22
sS'size'
p5
I6
sa(dp6
g2
F10.0
sg3
F14.005968820920843
sg4
I23
sg5
I12
sa(dp7
g2
F10.0
sg3
F5.7933871594962909
sg4
I56
sg5
I10
sa(dp8
g2
F10.0
sg3
F16.165046746764897
sg4
I34
sg5
I14
sa(dp9
g2
F10.0
sg3
F11.055447110304693
sg4
I54
sg5
I15
sa(dp10
g2
F10.0
sg3
F9.2771076301435578
sg4
I25
sg5
I8
sa(dp11
g2
F10.0
sg3
F18.664051608501939
sg4
I53
sg5
I5
sa(dp12
g2
F10.0
sg3
F11.333190158575718
sg4
I56
sg5
I11
sa(dp13
g2
F10.0
sg3
F14.727868895231397
sg4
I28
sg5
I8
sa(dp14
g2
F10.0
sg3
F4.7619447553597887
sg4
I53
sg5
I15
sa(dp15
g2
F10.0
sg3
F15.33912922634072
sg4
I22
sg5
I14
sa(dp16
g2
F10.0
sg3
F8.1454459857570818
sg4
I43
sg5
I9
sa(dp17
g2
F10.0
sg3
F10.685836493214266
sg4
I35
sg5
I8
sa(dp18
g2
F10.0
sg3
F1.1017178281187201
sg4
I32
sg5
I6
sa(dp19
g2
F10.0
sg3
F1.1636100275236276
sg4
I51
sg5
I15
sa(dp20
g2
F10.0
sg3
F0.96471531839302682
sg4
I48
sg5
I7
sa(dp21
g2
F10.0
sg3
F8.8519087514672439
sg4
I22
sg5
I14
sa(dp22
g2
F10.0
sg3
F14.630269828443543
sg4
I25
sg5
I13
sa(dp23
g2
F10.0
sg3
F3.0714093004471166
sg4
I28
sg5
I11
sa(dp24
g2
F10.0
sg3
F7.3920194112691924
sg4
I20
sg5
I9
sa(dp25
g2
F10.0
sg3
F13.739740415389289
sg4
I33
sg5
I12
sa(dp26
g2
F10.0
sg3
F3.9535287384941795
sg4
I35
sg5
I12
sa(dp27
g2
F10.0
sg3
F9.489893170383521
sg4
I48
sg5
I15
sa(dp28
g2
F10.0
sg3
F2.4698608701166544
sg4
I54
sg5
I9
sa(dp29
g2
F10.0
sg3
F6.5129898251423359
sg4
I37
sg5
I13
sa(dp30
g2
F10.0
sg3
F13.987253282091173
sg4
I26
sg5
I11
sa(dp31
g2
F10.0
sg3
F13.702507777419324
sg4
I60
sg5
I11
sa(dp32
g2
F10.0
sg3
F17.859167795206506
sg4
I43
sg5
I10
sa(dp33
g2
F10.0
sg3
F15.94764360237517
sg4
I59
sg5
I7
sa(dp34
g2
F10.0
sg3
F18.98448583174693
sg4
I36
sg5
I10
sa(dp35
g2
F10.0
sg3
F8.8598511428484628
sg4
I42
sg5
I15
sa(dp36
g2
F10.0
sg3
F9.1574372668264328
sg4
I53
sg5
I9
sa(dp37
g2
F10.0
sg3
F12.745753578211675
sg4
I60
sg5
I12
sa(dp38
g2
F10.0
sg3
F16.092957814973595
sg4
I21
sg5
I7
sa(dp39
g2
F10.0
sg3
F13.036665607042536
sg4
I43
sg5
I9
sa(dp40
g2
F10.0
sg3
F1.0503705583096457
sg4
I52
sg5
I8
sa(dp41
g2
F10.0
sg3
F4.5135942735011705
sg4
I44
sg5
I13
sa(dp42
g2
F10.0
sg3
F12.272752687399581
sg4
I22
sg5
I12
sa(dp43
g2
F10.0
sg3
F4.6127191147109148
sg4
I52
sg5
I8
sa(dp44
g2
F10.0
sg3
F8.7021162502477303
sg4
I20
sg5
I10
sa.