(lp0
(dp1
S'setup_time_limit'
p2
F10.0
sS'turn_time_limit'
p3
F18.491867870532481
sS'turns_left'
p4
I58
sS'size'
p5
I13
sa(dp6
g2
F10.0
sg3
F15.645874700825402
sg4
I46
sg5
I7
sa(dp7
g2
F10.0
sg3
F6.2947637827756022
sg4
I27
sg5
I11
sa(dp8
g2
F10.0
sg3
F2.0904924776123437
sg4
I24
sg5
I6
sa(dp9
g2
F10.0
sg3
F14.898883143805843
sg4
I68
sg5
I9
sa(dp10
g2
F10.0
sg3
F1.5490459355121997
sg4
I30
sg5
I15
sa(dp11
g2
F10.0
sg3
F8.4862951106937317
sg4
I62
sg5
I8
sa(dp12
g2
F10.0
sg3
F14.335865392480644
sg4
I30
sg5
I7
sa(dp13
g2
F10.0
sg3
F3.0621426011295467
sg4
I31
sg5
I6
sa(dp14
g2
F10.0
sg3
F6.0582359279829374
sg4
I44
sg5
I9
sa(dp15
g2
F10.0
sg3
F9.6643528180433087
sg4
I27
sg5
I5
sa(dp16
g2
F10.0
sg3
F12.855211968435242
sg4
I20
sg5
I7
sa(dp17
g2
F10.0
sg3
F5.696838950076514
sg4
I69
sg5
I7
sa(dp18
g2
F10.0
sg3
F2.3509957999220599
sg4
I60
sg5
I11
sa(dp19
g2
F10.0
sg3
F13.7499420558339
sg4
I30
sg5
I9
sa(dp20
g2
F10.0
sg3
F14.904511034976082
sg4
I47
sg5
I9
sa(dp21
g2
F10.0
sg3
F3.3286503914549583
sg4
I20
sg5
I10
sa(dp22
g2
F10.0
sg3
F0.67924169862230088
sg4
I57
sg5
I6
sa(dp23
g2
F10.0
sg3
F5.6985684466707065
sg4
I57
sg5
I12
sa(dp24
g2
F10.0
sg3
F15.251180038608092
sg4
I20
sg5
I8
sa(dp25
g2
F10.0
sg3
F8.328393509777019
sg4
I20
sg5
I15
sa(dp26
g2
F10.0
sg3
F0.98043617296556618
sg4
I63
sg5
I15
sa(dp27
g2
F10.0
sg3
F14.368704368548503
sg4
I42
sg5
I8
sa(dp28
g2
F10.0
sg3
F18.217177797703847
sg4
I33
sg5
I13
sa(dp29
g2
F10.0
sg3
F9.0023769476797391
sg4
I32
sg5
I11
sa(dp30
g2
F10.0
sg3
F17.63081309225786
sg4
I42
sg5
I6
sa(dp31
g2
F10.0
sg3
F8.1246450903745746
sg4
I51
sg5
I5
sa(dp32
g2
F10.0
sg3
F8.0678825789449782
sg4
I33
sg5
I5
sa(dp33
g2
F10.0
sg3
F10.92971302133051
sg4
I63
sg5
I12
sa(dp34
g2
F10.0
sg3
F16.55177452041146
sg4
I21
sg5
I15
sa(dp35
g2
F10.0
sg3
F11.70187549300044
sg4
I52
sg5
I10
sa(dp36
g2
F10.0
sg3
F12.280419097747389
sg4
I47
sg5
I13
sa(dp37
g2
F10.0
sg3
F1.2980943056123331
sg4
I70
sg5
I12
sa(dp38
g2
F10.0
sg3
F19.706941091825758
sg4
I66
sg5
I10
sa(dp39
g2
F10.0
sg3
F9.1021291781365328
sg4
I50
sg5
I7
sa(dp40
g2
F10.0
sg3
F11.060697180691838
sg4
I29
sg5
I10
sa(dp41
g2
F10.0
sg3
F3.9168988823007655
sg4
I41
sg5
I15
sa(dp42
g2
F10.0
sg3
F9.9695524572439158
sg4
I34
sg5
I12
sa(dp43
g2
F10.0
sg3
F3.9968583805589151
sg4
I22
sg5
I15
sa(dp44
g2
F10.0
sg3
F11.939091132273559
sg4
I24
sg5
I6
sa(dp45
g2
F10.0
sg3
F18.092790963356819
sg4
I60
sg5
I12
sa(dp46
g2
F10.0
sg3
F3.2770921114884701
sg4
I44
sg5
I8
sa(dp47
g2
F10.0
sg3
F6.2129915696410318
sg4
I65
sg5
I14
sa(dp48
g2
F10.0
sg3
F1.2013190430358058
sg4
I30
sg5
I9
sa(dp49
g2
F10.0
sg3
F17.983964164356934
sg4
I25
sg5
I9
sa(dp50
g2
F10.0
sg3
F11.644983142321365
sg4
I47
sg5
I11
sa(dp51
g2
F10.0
sg3
F7.4048146627284481
sg4
I27
sg5
I15
sa(dp52
g2
F10.0
sg3
F19.946248451779187
sg4
I26
sg5
I12
sa(dp53
g2
F10.0
sg3
F19.532827418740286
sg4
I25
sg5
I9
sa(dp54
g2
F10.0
sg3
F14.289925414685738
sg4
I67
sg5
I6
sa(dp55
g2
F10.0
sg3
F5.0505858381951994
sg4
I56
sg5
I5
sa(dp56
g2
F10.0
sg3
F18.385933153267395
sg4
I65
sg5
I10
sa(dp57
g2
F10.0
sg3
F2.3559062348452242
sg4
I53
sg5
I15
sa(dp58
g2
F10.0
sg3
F3.2842606297178127
sg4
I44
sg5
I7
sa(dp59
g2
F10.0
sg3
F8.6176793543531645
sg4
I48
sg5
I12
sa(dp60
g2
F10.0
sg3
F3.5761942844883303
sg4
I67
sg5
I12
sa(dp61
g2
F10.0
sg3
F14.174928701776288
sg4
I38
sg5
I10
sa(dp62
g2
F10.0
sg3
F17.214356493221807
sg4
I64
sg5
I9
sa(dp63
g2
F10.0
sg3
F6.847955756544069
sg4
I43
sg5
I8
sa(dp64
g2
F10.0
sg3
F7.3532508038161639
sg4
I69
sg5
I14
sa(dp65
g2
F10.0
sg3
F5.4144641133308511
sg4
I48
sg5
I15
sa(dp66
g2
F10.0
sg3
F1.8139160603420796
sg4
I43
sg5
I9
sa(dp67
g2
F10.0
sg3
F14.745151380770157
sg4
I37
sg5
I9
sa(dp68
g2
F10.0
sg3
F1.2049791242040326
sg4
I30
sg5
I12
sa(dp69
g2
F10.0
sg3
F1.9929968692889506
sg4
I54
sg5
I12
sa(dp70
g2
F10.0
sg3
F1.7090766711310474
sg4
I38
sg5
I12
sa(dp71
g2
F10.0
sg3
F9.6745589408130179
sg4
I57
sg5
I7
sa(dp72
g2
F10.0
sg3
F9.052754880815602
sg4
I32
sg5
I9
sa(dp73
g2
F10.0
sg3
F11.746239426391792
sg4
I58
sg5
I15
sa(dp74
g2
F10.0
sg3
F18.385491774066324
sg4
I57
sg5
I14
sa(dp75
g2
F10.0
sg3
F15.984155903753363
sg4
I23
sg5
I7
sa(dp76
g2
F10.0
sg3
F11.562178947826549
sg4
I21
sg5
I14
sa(dp77
g2
F10.0
sg3
F11.880215348086587
sg4
I63
sg5
I10
sa(dp78
g2
F10.0
sg3
F12.935523816925679
sg4
I42
sg5
I8
sa(dp79
g2
F10.0
sg3
F19.894160619094158
sg4
I63
sg5
I11
sa(dp80
g2
F10.0
sg3
F9.6543565003493867
sg4
I41
sg5
I11
sa(dp81
g2
F10.0
sg3
F12.558311923355086
sg4
I36
sg5
I14
sa(dp82
g2
F10.0
sg3
F11.075754044796712
sg4
I30
sg5
I6
sa(dp83
g2
F10.0
sg3
F19.457887396628259
sg4
I32
sg5
I15
sa(dp84
g2
F10.0
sg3
F4.9505714271555972
sg4
I69
sg5
I6
sa(dp85
g2
F10.0
sg3
F2.5210008209744879
sg4
I20
sg5
I15
sa(dp86
g2
F10.0
sg3
F8.1730905860782279
sg4
I63
sg5
I13
sa(dp87
g2
F10.0
sg3
F7.373473020099591
sg4
I58
sg5
I11
sa(dp88
g2
F10.0
sg3
F18.003657612495662
sg4
I29
sg5
I8
sa(dp89
g2
F10.0
sg3
F0.5539982747490475
sg4
I24
sg5
I12
sa(dp90
g2
F10.0
sg3
F2.9393456965203377
sg4
I25
sg5
I8
sa(dp91
g2
F10.0
sg3
F6.1738841470966586
sg4
I30
sg5
I12
sa(dp92
g2
F10.0
sg3
F16.347900401802477
sg4
I35
sg5
I7
sa(dp93
g2
F10.0
sg3
F5.4965414597324092
sg4
I34
sg5
I9
sa(dp94
g2
F10.0
sg3
F16.960830600537388
sg4
I47
sg5
I9
sa(dp95
g2
F10.0
sg3
F11.067316804017976
sg4
I55
sg5
I11
sa(dp96
g2
F10.0
sg3
F11.303078796589466
sg4
I29
sg5
I6
sa(dp97
g2
F10.0
sg3
F6.1118644040944421
sg4
I21
sg5
I6
sa(dp98
g2
F10.0
sg3
F13.431338647703786
sg4
I33
sg5
I6
sa(dp99
g2
F10.0
sg3
F11.403876601813431
sg4
I53
sg5
I5
sa(dp100
g2
F10.0
sg3
F5.7832085728073483
sg4
I68
sg5
I7
sa(dp101
g2
F10.0
sg3
F9.2071321160701984
sg4
I27
sg5
I14
sa(dp102
g2
F10.0
sg3
F10.199857397000672
sg4
I66
sg5
I7
sa(dp103
g2
F10.0
sg3
F4.2111222471258074
sg4
I40
sg5
I10
sa(dp104
g2
F10.0
sg3
F10.699104251873496
sg4
I31
sg5
I9
sa.