(lp0
(dp1
S'setup_time_limit'
p2
F10.0
sS'turn_time_limit'
p3
F13.718153484943041
sS'turns_left'
p4
I25
sS'size'
p5
I8
sa(dp6
g2
F10.0
sg3
F9.5506237491124679
sg4
I77
sg5
I9
sa(dp7
g2
F10.0
sg3
F19.322822458375118
sg4
I44
sg5
I6
sa(dp8
g2
F10.0
sg3
F19.370739346731622
sg4
I38
sg5
I5
sa(dp9
g2
F10.0
sg3
F14.44534892642595
sg4
I56
sg5
I6
sa(dp10
g2
F10.0
sg3
F16.917611828045551
sg4
I79
sg5
I12
sa(dp11
g2
F10.0
sg3
F18.856296763028926
sg4
I51
sg5
I12
sa(dp12
g2
F10.0
sg3
F2.9958139128516015
sg4
I33
sg5
I8
sa(dp13
g2
F10.0
sg3
F11.084427543888243
sg4
I71
sg5
I7
sa(dp14
g2
F10.0
sg3
F5.3460158020287505
sg4
I20
sg5
I10
sa(dp15
g2
F10.0
sg3
F12.552524824308904
sg4
I80
sg5
I7
sa(dp16
g2
F10.0
sg3
F5.7313490216050083
sg4
I48
sg5
I5
sa(dp17
g2
F10.0
sg3
F11.686713134029855
sg4
I59
sg5
I8
sa(dp18
g2
F10.0
sg3
F0.83019309968951682
sg4
I37
sg5
I11
sa(dp19
g2
F10.0
sg3
F2.5883332565505728
sg4
I66
sg5
I10
sa(dp20
g2
F10.0
sg3
F4.5200403960205158
sg4
I32
sg5
I6
sa(dp21
g2
F10.0
sg3
F10.343264889965296
sg4
I53
sg5
I7
sa(dp22
g2
F10.0
sg3
F16.76894051874627
sg4
I30
sg5
I10
sa(dp23
g2
F10.0
sg3
F6.9616678558338947
sg4
I35
sg5
I11
sa(dp24
g2
F10.0
sg3
F16.110688683784261
sg4
I50
sg5
I6
sa(dp25
g2
F10.0
sg3
F5.4190469178177363
sg4
I76
sg5
I12
sa(dp26
g2
F10.0
sg3
F19.005134722754857
sg4
I52
sg5
I8
sa(dp27
g2
F10.0
sg3
F18.359784824513095
sg4
I66
sg5
I6
sa(dp28
g2
F10.0
sg3
F11.102478303013132
sg4
I28
sg5
I8
sa(dp29
g2
F10.0
sg3
F9.2387257548455164
sg4
I55
sg5
I8
sa(dp30
g2
F10.0
sg3
F17.038953182477972
sg4
I41
sg5
I12
sa(dp31
g2
F10.0
sg3
F4.7848590614384205
sg4
I25
sg5
I8
sa(dp32
g2
F10.0
sg3
F16.798049554063272
sg4
I30
sg5
I8
sa(dp33
g2
F10.0
sg3
F17.175525918692266
sg4
I76
sg5
I6
sa(dp34
g2
F10.0
sg3
F15.67835668951226
sg4
I61
sg5
I12
sa.