(lp0
(dp1
S'setup_time_limit'
p2
F10.0
sS'turn_time_limit'
p3
F6.4163656016290656
sS'turns_left'
p4
I35
sS'size'
p5
I6
sa(dp6
g2
F10.0
sg3
F2.1522584931788242
sg4
I62
sg5
I9
sa(dp7
g2
F10.0
sg3
F5.7818111275230031
sg4
I22
sg5
I12
sa(dp8
g2
F10.0
sg3
F19.233752212184807
sg4
I25
sg5
I10
sa(dp9
g2
F10.0
sg3
F6.7895091565066945
sg4
I35
sg5
I8
sa(dp10
g2
F10.0
sg3
F7.8035270907425236
sg4
I68
sg5
I12
sa(dp11
g2
F10.0
sg3
F17.147871169787066
sg4
I24
sg5
I9
sa(dp12
g2
F10.0
sg3
F14.945260196298502
sg4
I60
sg5
I9
sa(dp13
g2
F10.0
sg3
F11.839218069159756
sg4
I51
sg5
I12
sa(dp14
g2
F10.0
sg3
F4.1842459163401706
sg4
I31
sg5
I11
sa(dp15
g2
F10.0
sg3
F19.759095586793141
sg4
I20
sg5
I12
sa(dp16
g2
F10.0
sg3
F13.250880943673437
sg4
I59
sg5
I7
sa(dp17
g2
F10.0
sg3
F5.848348255607478
sg4
I71
sg5
I12
sa(dp18
g2
F10.0
sg3
F9.1814792750648468
sg4
I34
sg5
I12
sa(dp19
g2
F10.0
sg3
F17.762519335270717
sg4
I45
sg5
I7
sa(dp20
g2
F10.0
sg3
F18.196509215856643
sg4
I28
sg5
I7
sa(dp21
g2
F10.0
sg3
F13.925698189823667
sg4
I77
sg5
I5
sa(dp22
g2
F10.0
sg3
F19.223363854473252
sg4
I43
sg5
I11
sa(dp23
g2
F10.0
sg3
F7.3054887180038479
sg4
I43
sg5
I6
sa(dp24
g2
F10.0
sg3
F7.3046818262610751
sg4
I33
sg5
I6
sa(dp25
g2
F10.0
sg3
F1.8731119605865663
sg4
I55
sg5
I5
sa(dp26
g2
F10.0
sg3
F5.650978379167138
sg4
I62
sg5
I7
sa(dp27
g2
F10.0
sg3
F16.896929756094966
sg4
I29
sg5
I5
sa(dp28
g2
F10.0
sg3
F13.276880374645017
sg4
I68
sg5
I8
sa(dp29
g2
F10.0
sg3
F13.946758143481249
sg4
I24
sg5
I7
sa(dp30
g2
F10.0
sg3
F1.374210884491009
sg4
I25
sg5
I9
sa(dp31
g2
F10.0
sg3
F2.5655762097708084
sg4
I46
sg5
I10
sa(dp32
g2
F10.0
sg3
F19.335720065478487
sg4
I62
sg5
I12
sa(dp33
g2
F10.0
sg3
F3.0474101767110859
sg4
I50
sg5
I10
sa(dp34
g2
F10.0
sg3
F17.313681968841827
sg4
I75
sg5
I12
sa.